target datalayout = "e-m:e-p270:32:32-p271:32:32-p272:64:64-i64:64-i128:128-f80:128-n8:16:32:64-S128"
target triple = "x86_64-pc-linux-gnu"

%class.HandlerTableEntry = type { i32, i32, i32 }
%class.ExceptionHandlerTable = type <{ ptr, i32, i32, %class.ReallocMark, [7 x i8] }>
%class.ReallocMark = type { i8 }

; Function Attrs: mustprogress nounwind uwtable
define linkonce_odr hidden noundef i32 @_ZNK17HandlerTableEntry3pcoEv(ptr noundef nonnull align 4 dereferenceable(12) %0) #1 comdat align 2 {
  %2 = alloca ptr, align 8
  store ptr %0, ptr %2, align 8
  %3 = load ptr, ptr %2, align 8
  %4 = getelementptr inbounds %class.HandlerTableEntry, ptr %3, i32 0, i32 1
  %5 = load i32, ptr %4, align 4
  ret i32 %5
}

; Function Attrs: mustprogress nounwind uwtable
define linkonce_odr hidden noundef i32 @_ZNK17HandlerTableEntry11scope_depthEv(ptr noundef nonnull align 4 dereferenceable(12) %0) #1 comdat align 2 {
  %2 = alloca ptr, align 8
  store ptr %0, ptr %2, align 8
  %3 = load ptr, ptr %2, align 8
  %4 = getelementptr inbounds %class.HandlerTableEntry, ptr %3, i32 0, i32 2
  %5 = load i32, ptr %4, align 4
  ret i32 %5
}

; Function Attrs: mustprogress nounwind uwtable
define linkonce_odr hidden noundef i32 @_ZNK17HandlerTableEntry3bciEv(ptr noundef nonnull align 4 dereferenceable(12) %0) #1 comdat align 2 {
  %2 = alloca ptr, align 8
  store ptr %0, ptr %2, align 8
  %3 = load ptr, ptr %2, align 8
  %4 = getelementptr inbounds %class.HandlerTableEntry, ptr %3, i32 0, i32 0
  %5 = load i32, ptr %4, align 4
  ret i32 %5
}

; Function Attrs: mustprogress nounwind uwtable
define linkonce_odr hidden noundef i32 @_ZNK17HandlerTableEntry3lenEv(ptr noundef nonnull align 4 dereferenceable(12) %0) #1 comdat align 2 {
  %2 = alloca ptr, align 8
  store ptr %0, ptr %2, align 8
  %3 = load ptr, ptr %2, align 8
  %4 = getelementptr inbounds %class.HandlerTableEntry, ptr %3, i32 0, i32 0
  %5 = load i32, ptr %4, align 4
  ret i32 %5
}

; Function Attrs: mustprogress nounwind uwtable
define hidden noundef ptr @_ZNK21ExceptionHandlerTable12subtable_forEi(ptr noundef nonnull align 8 dereferenceable(17) %0, i32 noundef %1) #1 align 2 {
  %3 = alloca ptr, align 8
  %4 = alloca ptr, align 8
  %5 = alloca i32, align 4
  %6 = alloca i32, align 4
  %7 = alloca ptr, align 8
  store ptr %0, ptr %4, align 8
  store i32 %1, ptr %5, align 4
  %8 = load ptr, ptr %4, align 8
  store i32 0, ptr %6, align 4
  br label %9

9:                                                ; preds = %32, %2
  %10 = load i32, ptr %6, align 4
  %11 = getelementptr inbounds %class.ExceptionHandlerTable, ptr %8, i32 0, i32 1
  %12 = load i32, ptr %11, align 8
  %13 = icmp slt i32 %10, %12
  br i1 %13, label %14, label %33

14:                                               ; preds = %9
  %15 = getelementptr inbounds %class.ExceptionHandlerTable, ptr %8, i32 0, i32 0
  %16 = load ptr, ptr %15, align 8
  %17 = load i32, ptr %6, align 4
  %18 = sext i32 %17 to i64
  %19 = getelementptr inbounds %class.HandlerTableEntry, ptr %16, i64 %18
  store ptr %19, ptr %7, align 8
  %20 = load ptr, ptr %7, align 8
  %21 = call noundef i32 @_ZNK17HandlerTableEntry3pcoEv(ptr noundef nonnull align 4 dereferenceable(12) %20)
  %22 = load i32, ptr %5, align 4
  %23 = icmp eq i32 %21, %22
  br i1 %23, label %24, label %26

24:                                               ; preds = %14
  %25 = load ptr, ptr %7, align 8
  store ptr %25, ptr %3, align 8
  br label %34

26:                                               ; preds = %14
  %27 = load ptr, ptr %7, align 8
  %28 = call noundef i32 @_ZNK17HandlerTableEntry3lenEv(ptr noundef nonnull align 4 dereferenceable(12) %27)
  %29 = add nsw i32 %28, 1
  %30 = load i32, ptr %6, align 4
  %31 = add nsw i32 %30, %29
  store i32 %31, ptr %6, align 4
  br label %32

32:                                               ; preds = %26
  br label %9, !llvm.loop !6

33:                                               ; preds = %9
  store ptr null, ptr %3, align 8
  br label %34

34:                                               ; preds = %33, %24
  %35 = load ptr, ptr %3, align 8
  ret ptr %35
}

; Function Attrs: mustprogress nounwind uwtable
define hidden noundef ptr @_ZNK21ExceptionHandlerTable9entry_forEiii(ptr noundef nonnull align 8 dereferenceable(17) %0, i32 noundef %1, i32 noundef %2, i32 noundef %3) #1 align 2 {
  %5 = alloca ptr, align 8
  %6 = alloca ptr, align 8
  %7 = alloca i32, align 4
  %8 = alloca i32, align 4
  %9 = alloca i32, align 4
  %10 = alloca ptr, align 8
  %11 = alloca i32, align 4
  store ptr %0, ptr %6, align 8
  store i32 %1, ptr %7, align 4
  store i32 %2, ptr %8, align 4
  store i32 %3, ptr %9, align 4
  %12 = load ptr, ptr %6, align 8
  %13 = load i32, ptr %7, align 4
  %14 = call noundef ptr @_ZNK21ExceptionHandlerTable12subtable_forEi(ptr noundef nonnull align 8 dereferenceable(17) %12, i32 noundef %13)
  store ptr %14, ptr %10, align 8
  %15 = load ptr, ptr %10, align 8
  %16 = icmp ne ptr %15, null
  br i1 %16, label %17, label %40

17:                                               ; preds = %4
  %18 = load ptr, ptr %10, align 8
  %19 = call noundef i32 @_ZNK17HandlerTableEntry3lenEv(ptr noundef nonnull align 4 dereferenceable(12) %18)
  store i32 %19, ptr %11, align 4
  br label %20

20:                                               ; preds = %38, %17
  %21 = load i32, ptr %11, align 4
  %22 = add nsw i32 %21, -1
  store i32 %22, ptr %11, align 4
  %23 = icmp sgt i32 %21, 0
  br i1 %23, label %24, label %39

24:                                               ; preds = %20
  %25 = load ptr, ptr %10, align 8
  %26 = getelementptr inbounds %class.HandlerTableEntry, ptr %25, i32 1
  store ptr %26, ptr %10, align 8
  %27 = load ptr, ptr %10, align 8
  %28 = call noundef i32 @_ZNK17HandlerTableEntry3bciEv(ptr noundef nonnull align 4 dereferenceable(12) %27)
  %29 = load i32, ptr %8, align 4
  %30 = icmp eq i32 %28, %29
  br i1 %30, label %31, label %38

31:                                               ; preds = %24
  %32 = load ptr, ptr %10, align 8
  %33 = call noundef i32 @_ZNK17HandlerTableEntry11scope_depthEv(ptr noundef nonnull align 4 dereferenceable(12) %32)
  %34 = load i32, ptr %9, align 4
  %35 = icmp eq i32 %33, %34
  br i1 %35, label %36, label %38

36:                                               ; preds = %31
  %37 = load ptr, ptr %10, align 8
  store ptr %37, ptr %5, align 8
  br label %41

38:                                               ; preds = %31, %24
  br label %20, !llvm.loop !9

39:                                               ; preds = %20
  br label %40

40:                                               ; preds = %39, %4
  store ptr null, ptr %5, align 8
  br label %41

41:                                               ; preds = %40, %36
  %42 = load ptr, ptr %5, align 8
  ret ptr %42
}