; Function Attrs: mustprogress nofree norecurse nosync nounwind willreturn memory(read, inaccessiblemem: none) uwtable
define hidden noundef ptr @_ZNK21ExceptionHandlerTable9entry_forEiii(ptr nocapture noundef nonnull readonly align 8 dereferenceable(17) %0, i32 noundef %1, i32 noundef %2, i32 noundef %3) local_unnamed_addr #3 align 2 {
  %5 = getelementptr inbounds i8, ptr %0, i64 8
  %6 = load i32, ptr %5, align 8
  %7 = icmp sgt i32 %6, 0
  br i1 %7, label %.lr.ph.i, label %_ZNK21ExceptionHandlerTable12subtable_forEi.exit.thread

.lr.ph.i:                                         ; preds = %4
  %8 = load ptr, ptr %0, align 8
  br label %9

9:                                                ; preds = %16, %.lr.ph.i
  %.089.i = phi i32 [ 0, %.lr.ph.i ], [ %18, %16 ]
  %10 = sext i32 %.089.i to i64
  %11 = getelementptr inbounds %class.HandlerTableEntry, ptr %8, i64 %10
  %12 = getelementptr inbounds i8, ptr %11, i64 4
  %13 = load i32, ptr %12, align 4
  %14 = icmp eq i32 %13, %1
  %15 = load i32, ptr %11, align 4
  br i1 %14, label %_ZNK21ExceptionHandlerTable12subtable_forEi.exit, label %16

16:                                               ; preds = %9
  %17 = add nsw i32 %.089.i, 1
  %18 = add i32 %17, %15
  %19 = icmp slt i32 %18, %6
  br i1 %19, label %9, label %_ZNK21ExceptionHandlerTable12subtable_forEi.exit.thread, !llvm.loop !6

_ZNK21ExceptionHandlerTable12subtable_forEi.exit: ; preds = %9
  %20 = icmp sgt i32 %15, 0
  br i1 %20, label %.lr.ph, label %_ZNK21ExceptionHandlerTable12subtable_forEi.exit.thread

.lr.ph:                                           ; preds = %_ZNK21ExceptionHandlerTable12subtable_forEi.exit, %29
  %.in = phi i32 [ %21, %29 ], [ %15, %_ZNK21ExceptionHandlerTable12subtable_forEi.exit ]
  %.01118 = phi ptr [ %22, %29 ], [ %11, %_ZNK21ExceptionHandlerTable12subtable_forEi.exit ]
  %21 = add nsw i32 %.in, -1
  %22 = getelementptr inbounds i8, ptr %.01118, i64 12
  %23 = load i32, ptr %22, align 4
  %24 = icmp eq i32 %23, %2
  br i1 %24, label %25, label %29

25:                                               ; preds = %.lr.ph
  %26 = getelementptr inbounds i8, ptr %.01118, i64 20
  %27 = load i32, ptr %26, align 4
  %28 = icmp eq i32 %27, %3
  br i1 %28, label %_ZNK21ExceptionHandlerTable12subtable_forEi.exit.thread, label %29

29:                                               ; preds = %25, %.lr.ph
  %30 = icmp ugt i32 %.in, 1
  br i1 %30, label %.lr.ph, label %_ZNK21ExceptionHandlerTable12subtable_forEi.exit.thread, !llvm.loop !9

_ZNK21ExceptionHandlerTable12subtable_forEi.exit.thread: ; preds = %16, %25, %29, %_ZNK21ExceptionHandlerTable12subtable_forEi.exit, %4
  %.012 = phi ptr [ null, %4 ], [ null, %_ZNK21ExceptionHandlerTable12subtable_forEi.exit ], [ %22, %25 ], [ null, %29 ], [ null, %16 ]
  ret ptr %.012
}